; Function Attrs: mustprogress nofree nounwind willreturn memory(argmem: readwrite) uwtable
define dso_local range(i32 -9, 1) i32 @fdt_begin_node(ptr noundef captures(none) %0, ptr noundef readonly captures(none) %1) local_unnamed_addr #5 {
  %3 = load i8, ptr %0, align 1
  %4 = zext i8 %3 to i32
  %5 = shl nuw i32 %4, 24
  %6 = getelementptr inbounds nuw i8, ptr %0, i64 1
  %7 = load i8, ptr %6, align 1
  %8 = zext i8 %7 to i32
  %9 = shl nuw nsw i32 %8, 16
  %10 = or disjoint i32 %9, %5
  %11 = getelementptr inbounds nuw i8, ptr %0, i64 2
  %12 = load i8, ptr %11, align 1
  %13 = zext i8 %12 to i32
  %14 = shl nuw nsw i32 %13, 8
  %15 = or disjoint i32 %10, %14
  %16 = getelementptr inbounds nuw i8, ptr %0, i64 3
  %17 = load i8, ptr %16, align 1
  %18 = zext i8 %17 to i32
  %19 = or disjoint i32 %15, %18
  %.not.i.i = icmp eq i32 %19, 804389138
  br i1 %.not.i.i, label %20, label %fdt_sw_probe_struct_.exit

20:                                               ; preds = %2
  %21 = getelementptr inbounds nuw i8, ptr %0, i64 12
  %22 = load i8, ptr %21, align 1
  %23 = zext i8 %22 to i32
  %24 = shl nuw i32 %23, 24
  %25 = getelementptr inbounds nuw i8, ptr %0, i64 13
  %26 = load i8, ptr %25, align 1
  %27 = zext i8 %26 to i32
  %28 = shl nuw nsw i32 %27, 16
  %29 = or disjoint i32 %28, %24
  %30 = getelementptr inbounds nuw i8, ptr %0, i64 14
  %31 = load i8, ptr %30, align 1
  %32 = zext i8 %31 to i32
  %33 = shl nuw nsw i32 %32, 8
  %34 = or disjoint i32 %29, %33
  %35 = getelementptr inbounds nuw i8, ptr %0, i64 15
  %36 = load i8, ptr %35, align 1
  %37 = zext i8 %36 to i32
  %38 = or disjoint i32 %34, %37
  %39 = getelementptr inbounds nuw i8, ptr %0, i64 4
  %40 = load i8, ptr %39, align 1
  %41 = zext i8 %40 to i32
  %42 = shl nuw i32 %41, 24
  %43 = getelementptr inbounds nuw i8, ptr %0, i64 5
  %44 = load i8, ptr %43, align 1
  %45 = zext i8 %44 to i32
  %46 = shl nuw nsw i32 %45, 16
  %47 = or disjoint i32 %46, %42
  %48 = getelementptr inbounds nuw i8, ptr %0, i64 6
  %49 = load i8, ptr %48, align 1
  %50 = zext i8 %49 to i32
  %51 = shl nuw nsw i32 %50, 8
  %52 = or disjoint i32 %47, %51
  %53 = getelementptr inbounds nuw i8, ptr %0, i64 7
  %54 = load i8, ptr %53, align 1
  %55 = zext i8 %54 to i32
  %56 = or disjoint i32 %52, %55
  %.not6.i = icmp eq i32 %38, %56
  br i1 %.not6.i, label %fdt_sw_probe_struct_.exit.thread, label %fdt_sw_probe_struct_.exit.thread17

fdt_sw_probe_struct_.exit:                        ; preds = %2
  %57 = icmp eq i32 %19, -804389139
  %.0.i.i = select i1 %57, i32 -7, i32 -9
  br label %fdt_sw_probe_struct_.exit.thread17

fdt_sw_probe_struct_.exit.thread:                 ; preds = %20
  %58 = tail call i64 @strlen(ptr noundef nonnull dereferenceable(1) %1) #10
  %59 = shl i64 %58, 32
  %sext = add i64 %59, 4294967296
  %60 = ashr exact i64 %sext, 32
  %61 = add nsw i64 %60, 3
  %62 = and i64 %61, -4
  %63 = add nsw i64 %62, 4
  %64 = getelementptr inbounds nuw i8, ptr %0, i64 36
  %65 = load i8, ptr %64, align 1
  %66 = zext i8 %65 to i32
  %67 = shl nuw i32 %66, 24
  %68 = getelementptr inbounds nuw i8, ptr %0, i64 37
  %69 = load i8, ptr %68, align 1
  %70 = zext i8 %69 to i32
  %71 = shl nuw nsw i32 %70, 16
  %72 = or disjoint i32 %71, %67
  %73 = getelementptr inbounds nuw i8, ptr %0, i64 38
  %74 = load i8, ptr %73, align 1
  %75 = zext i8 %74 to i32
  %76 = shl nuw nsw i32 %75, 8
  %77 = or disjoint i32 %72, %76
  %78 = getelementptr inbounds nuw i8, ptr %0, i64 39
  %79 = load i8, ptr %78, align 1
  %80 = zext i8 %79 to i32
  %81 = or disjoint i32 %77, %80
  %82 = zext i32 %81 to i64
  %83 = add nsw i64 %63, %82
  %84 = icmp ult i64 %83, %82
  br i1 %84, label %fdt_sw_probe_struct_.exit.thread17, label %85

85:                                               ; preds = %fdt_sw_probe_struct_.exit.thread
  %86 = getelementptr inbounds nuw i8, ptr %0, i64 8
  %87 = load i8, ptr %86, align 1
  %88 = getelementptr inbounds nuw i8, ptr %0, i64 33
  %89 = load i8, ptr %88, align 1
  %90 = zext i8 %89 to i64
  %.neg19.i = mul nuw nsw i64 %90, 4294901760
  %91 = getelementptr inbounds nuw i8, ptr %0, i64 32
  %92 = load i8, ptr %91, align 1
  %93 = zext i8 %92 to i64
  %94 = getelementptr inbounds nuw i8, ptr %0, i64 34
  %95 = load i8, ptr %94, align 1
  %96 = zext i8 %95 to i64
  %97 = shl nuw nsw i64 %96, 8
  %98 = getelementptr inbounds nuw i8, ptr %0, i64 35
  %99 = load i8, ptr %98, align 1
  %100 = zext i8 %99 to i64
  %101 = or disjoint i64 %97, %100
  %102 = getelementptr inbounds nuw i8, ptr %0, i64 9
  %103 = load i8, ptr %102, align 1
  %104 = zext i8 %103 to i64
  %105 = zext i8 %87 to i64
  %.neg24.i = mul nuw nsw i64 %105, 4278190080
  %106 = shl nuw nsw i64 %104, 16
  %107 = getelementptr inbounds nuw i8, ptr %0, i64 10
  %108 = load i8, ptr %107, align 1
  %109 = zext i8 %108 to i64
  %110 = shl nuw nsw i64 %109, 8
  %111 = or disjoint i64 %110, %106
  %112 = getelementptr inbounds nuw i8, ptr %0, i64 11
  %113 = load i8, ptr %112, align 1
  %114 = zext i8 %113 to i64
  %115 = or disjoint i64 %111, %114
  %116 = zext i8 %44 to i64
  %117 = shl nuw nsw i64 %116, 16
  %118 = zext i8 %40 to i64
  %119 = shl nuw nsw i64 %118, 24
  %120 = or disjoint i64 %119, %117
  %121 = zext i8 %49 to i64
  %122 = shl nuw nsw i64 %121, 8
  %123 = or disjoint i64 %120, %122
  %124 = zext i8 %54 to i64
  %125 = or disjoint i64 %123, %124
  %.neg28.i = add nuw nsw i64 %.neg19.i, %.neg24.i
  %126 = shl nuw nsw i64 %93, 24
  %127 = add nuw nsw i64 %101, %115
  %128 = add nuw nsw i64 %126, %127
  %.neg17.i = sub nsw i64 %.neg28.i, %128
  %129 = add nsw i64 %.neg17.i, %125
  %130 = and i64 %129, 4294967295
  %131 = icmp ugt i64 %83, %130
  br i1 %131, label %fdt_sw_probe_struct_.exit.thread17, label %132

132:                                              ; preds = %85
  %133 = trunc nuw i64 %83 to i32
  %rev.i.i.i = tail call noundef i32 @llvm.bswap.i32(i32 %133)
  store i32 %rev.i.i.i, ptr %64, align 4
  %134 = shl nuw nsw i64 %105, 24
  %135 = or disjoint i64 %106, %134
  %136 = or disjoint i64 %135, %110
  %137 = or disjoint i64 %136, %114
  %138 = getelementptr inbounds nuw i8, ptr %0, i64 %137
  %139 = sext i32 %81 to i64
  %140 = getelementptr inbounds i8, ptr %138, i64 %139
  store i32 16777216, ptr %140, align 4
  %141 = getelementptr inbounds nuw i8, ptr %140, i64 4
  tail call void @llvm.memcpy.p0.p0.i64(ptr nonnull align 4 %141, ptr nonnull align 1 %1, i64 %60, i1 false)
  br label %fdt_sw_probe_struct_.exit.thread17

fdt_sw_probe_struct_.exit.thread17:               ; preds = %fdt_sw_probe_struct_.exit, %fdt_sw_probe_struct_.exit.thread, %85, %20, %132
  %.1 = phi i32 [ 0, %132 ], [ %.0.i.i, %fdt_sw_probe_struct_.exit ], [ -7, %20 ], [ -3, %85 ], [ -3, %fdt_sw_probe_struct_.exit.thread ]
  ret i32 %.1
}